ccollections
deque
p0
((lp1
ccopy_reg
_reconstructor
p2
(cwatdo.watdo
it
p3
c__builtin__
object
p4
Ntp5
Rp6
(dp7
S'what'
p8
S'work on things'
p9
sS'urgency'
p10
S'NORMAL'
p11
sS'created'
p12
S'Mon Jun 23 11:49:09 2014'
p13
sbatp14
Rp15
.